; Function Attrs: mustprogress nounwind uwtable
define hidden noundef signext i8 @_ZN14java_lang_Byte5valueEP7oopDesc(ptr noundef %0) local_unnamed_addr #0 align 2 {
  %2 = load i8, ptr @UseCompressedClassPointers, align 1
  %3 = trunc i8 %2 to i1
  %4 = getelementptr inbounds i8, ptr %0, i64 8
  br i1 %3, label %5, label %15

5:                                                ; preds = %1
  %6 = load i32, ptr %4, align 8
  %7 = load ptr, ptr @_ZN23CompressedKlassPointers5_baseE, align 8
  %8 = load i32, ptr @_ZN23CompressedKlassPointers6_shiftE, align 4
  %9 = ptrtoint ptr %7 to i64
  %10 = zext i32 %6 to i64
  %11 = zext nneg i32 %8 to i64
  %12 = shl i64 %10, %11
  %13 = add i64 %12, %9
  %14 = inttoptr i64 %13 to ptr
  br label %_ZNK7oopDesc5klassEv.exit.i

15:                                               ; preds = %1
  %16 = load ptr, ptr %4, align 8
  br label %_ZNK7oopDesc5klassEv.exit.i

_ZNK7oopDesc5klassEv.exit.i:                      ; preds = %15, %5
  %.0.i.i = phi ptr [ %14, %5 ], [ %16, %15 ]
  %17 = tail call noundef zeroext i8 @_ZN9vmClasses14box_klass_typeEP5Klass(ptr noundef %.0.i.i) #19
  %18 = ptrtoint ptr %0 to i64
  switch i8 %17, label %unreachable [
    i8 4, label %19
    i8 5, label %25
    i8 6, label %31
    i8 7, label %37
    i8 8, label %43
    i8 9, label %49
    i8 10, label %55
    i8 11, label %61
  ]

19:                                               ; preds = %_ZNK7oopDesc5klassEv.exit.i
  %20 = load i32, ptr @_ZN23java_lang_boxing_object13_value_offsetE, align 4
  %21 = sext i32 %20 to i64
  %22 = add nsw i64 %21, %18
  %23 = inttoptr i64 %22 to ptr
  %24 = load i8, ptr %23, align 1
  br label %_ZN23java_lang_boxing_object9get_valueEP7oopDescP6jvalue.exit

25:                                               ; preds = %_ZNK7oopDesc5klassEv.exit.i
  %26 = load i32, ptr @_ZN23java_lang_boxing_object13_value_offsetE, align 4
  %27 = sext i32 %26 to i64
  %28 = add nsw i64 %27, %18
  %29 = inttoptr i64 %28 to ptr
  %30 = load i16, ptr %29, align 2
  %.sroa.0.sroa.0.sroa.0.sroa.0.0.extract.trunc10 = trunc i16 %30 to i8
  br label %_ZN23java_lang_boxing_object9get_valueEP7oopDescP6jvalue.exit

31:                                               ; preds = %_ZNK7oopDesc5klassEv.exit.i
  %32 = load i32, ptr @_ZN23java_lang_boxing_object13_value_offsetE, align 4
  %33 = sext i32 %32 to i64
  %34 = add nsw i64 %33, %18
  %35 = inttoptr i64 %34 to ptr
  %36 = load i32, ptr %35, align 4
  %.sroa.0.sroa.0.sroa.0.sroa.0.0.extract.trunc11 = trunc i32 %36 to i8
  br label %_ZN23java_lang_boxing_object9get_valueEP7oopDescP6jvalue.exit

37:                                               ; preds = %_ZNK7oopDesc5klassEv.exit.i
  %38 = load i32, ptr @_ZN23java_lang_boxing_object18_long_value_offsetE, align 4
  %39 = sext i32 %38 to i64
  %40 = add nsw i64 %39, %18
  %41 = inttoptr i64 %40 to ptr
  %42 = load i64, ptr %41, align 8
  %.sroa.0.sroa.0.sroa.0.sroa.0.0.extract.trunc14 = trunc i64 %42 to i8
  br label %_ZN23java_lang_boxing_object9get_valueEP7oopDescP6jvalue.exit

43:                                               ; preds = %_ZNK7oopDesc5klassEv.exit.i
  %44 = load i32, ptr @_ZN23java_lang_boxing_object13_value_offsetE, align 4
  %45 = sext i32 %44 to i64
  %46 = add nsw i64 %45, %18
  %47 = inttoptr i64 %46 to ptr
  %48 = load i8, ptr %47, align 1
  br label %_ZN23java_lang_boxing_object9get_valueEP7oopDescP6jvalue.exit

49:                                               ; preds = %_ZNK7oopDesc5klassEv.exit.i
  %50 = load i32, ptr @_ZN23java_lang_boxing_object13_value_offsetE, align 4
  %51 = sext i32 %50 to i64
  %52 = add nsw i64 %51, %18
  %53 = inttoptr i64 %52 to ptr
  %54 = load i16, ptr %53, align 2
  %.sroa.0.sroa.0.sroa.0.sroa.0.0.extract.trunc = trunc i16 %54 to i8
  br label %_ZN23java_lang_boxing_object9get_valueEP7oopDescP6jvalue.exit

55:                                               ; preds = %_ZNK7oopDesc5klassEv.exit.i
  %56 = load i32, ptr @_ZN23java_lang_boxing_object13_value_offsetE, align 4
  %57 = sext i32 %56 to i64
  %58 = add nsw i64 %57, %18
  %59 = inttoptr i64 %58 to ptr
  %60 = load i32, ptr %59, align 4
  %.sroa.0.sroa.0.sroa.0.sroa.0.0.extract.trunc13 = trunc i32 %60 to i8
  br label %_ZN23java_lang_boxing_object9get_valueEP7oopDescP6jvalue.exit

61:                                               ; preds = %_ZNK7oopDesc5klassEv.exit.i
  %62 = load i32, ptr @_ZN23java_lang_boxing_object18_long_value_offsetE, align 4
  %63 = sext i32 %62 to i64
  %64 = add nsw i64 %63, %18
  %65 = inttoptr i64 %64 to ptr
  %66 = load i32, ptr %65, align 8
  %.sroa.0.sroa.0.sroa.0.sroa.0.0.extract.trunc12 = trunc i32 %66 to i8
  br label %_ZN23java_lang_boxing_object9get_valueEP7oopDescP6jvalue.exit

unreachable:                                      ; preds = %_ZNK7oopDesc5klassEv.exit.i
  unreachable

_ZN23java_lang_boxing_object9get_valueEP7oopDescP6jvalue.exit: ; preds = %19, %25, %31, %37, %43, %49, %55, %61
  %.sroa.0.sroa.0.sroa.0.sroa.0.0 = phi i8 [ %.sroa.0.sroa.0.sroa.0.sroa.0.0.extract.trunc12, %61 ], [ %.sroa.0.sroa.0.sroa.0.sroa.0.0.extract.trunc13, %55 ], [ %.sroa.0.sroa.0.sroa.0.sroa.0.0.extract.trunc, %49 ], [ %48, %43 ], [ %.sroa.0.sroa.0.sroa.0.sroa.0.0.extract.trunc14, %37 ], [ %.sroa.0.sroa.0.sroa.0.sroa.0.0.extract.trunc11, %31 ], [ %.sroa.0.sroa.0.sroa.0.sroa.0.0.extract.trunc10, %25 ], [ %24, %19 ]
  ret i8 %.sroa.0.sroa.0.sroa.0.sroa.0.0
}